target datalayout = "e-m:e-p270:32:32-p271:32:32-p272:64:64-i64:64-i128:128-f80:128-n8:16:32:64-S128"
target triple = "x86_64-pc-linux-gnu"

%struct._mq_parm_t = type { i32, i32, i32, i32, i32, i32, i32, i32, i32, i32, i32, i32, i32, i8, i8, i8, %struct._mq_ccsid_t, %struct._mq_ccsid_t, %struct._mq_ccsid_t, %struct._mq_ccsid_t, %struct._mq_ccsid_t, %struct._mq_ccsid_t, %struct._mq_ccsid_t, [8 x i8], i32, i32, i32 }
%struct._mq_ccsid_t = type { i32, i32 }

@hf_mq_close_options = internal global i32 0, align 4
@ett_mq_close_option = internal global i32 0, align 4
@.str.1894 = private unnamed_addr constant [26 x i8] c"Close Immediate/No option\00", align 1
@pf_flds_clsopt = internal constant [6 x ptr] [ptr @hf_mq_close_options_QUIESCE, ptr @hf_mq_close_options_REMOVE_SUB, ptr @hf_mq_close_options_KEEP_SUB, ptr @hf_mq_close_options_DELETE_PURGE, ptr @hf_mq_close_options_DELETE, ptr null], align 16

; Function Attrs: null_pointer_is_valid sspstrong uwtable
define internal i32 @dissect_mq_MQCO(ptr noundef %0, ptr noundef %1, i32 noundef %2, ptr noundef %3) #0 {
  %5 = alloca ptr, align 8
  %6 = alloca ptr, align 8
  %7 = alloca i32, align 4
  %8 = alloca ptr, align 8
  %9 = alloca i32, align 4
  %10 = alloca ptr, align 8
  %11 = alloca ptr, align 8
  store ptr %0, ptr %5, align 8
  store ptr %1, ptr %6, align 8
  store i32 %2, ptr %7, align 4
  store ptr %3, ptr %8, align 8
  call void @llvm.lifetime.start.p0(i64 4, ptr %9) #9
  %12 = load ptr, ptr %5, align 8
  %13 = load i32, ptr %7, align 4
  %14 = load ptr, ptr %8, align 8
  %15 = getelementptr inbounds nuw %struct._mq_parm_t, ptr %14, i32 0, i32 3
  %16 = load i32, ptr %15, align 4
  %17 = call i32 @tvb_get_uint32(ptr noundef %12, i32 noundef %13, i32 noundef %16)
  store i32 %17, ptr %9, align 4
  %18 = load i32, ptr %9, align 4
  %19 = icmp eq i32 %18, 0
  br i1 %19, label %20, label %37

20:                                               ; preds = %4
  call void @llvm.lifetime.start.p0(i64 8, ptr %10) #9
  call void @llvm.lifetime.start.p0(i64 8, ptr %11) #9
  %21 = load ptr, ptr %6, align 8
  %22 = load i32, ptr @hf_mq_close_options, align 4
  %23 = load ptr, ptr %5, align 8
  %24 = load i32, ptr %7, align 4
  %25 = load ptr, ptr %8, align 8
  %26 = getelementptr inbounds nuw %struct._mq_parm_t, ptr %25, i32 0, i32 3
  %27 = load i32, ptr %26, align 4
  %28 = call ptr @proto_tree_add_item(ptr noundef %21, i32 noundef %22, ptr noundef %23, i32 noundef %24, i32 noundef 4, i32 noundef %27)
  store ptr %28, ptr %10, align 8
  %29 = load ptr, ptr %10, align 8
  %30 = load i32, ptr @ett_mq_close_option, align 4
  %31 = call ptr @proto_item_add_subtree(ptr noundef %29, i32 noundef %30)
  store ptr %31, ptr %11, align 8
  %32 = load ptr, ptr %11, align 8
  %33 = load ptr, ptr %5, align 8
  %34 = load i32, ptr %7, align 4
  %35 = load i32, ptr @ett_mq_close_option, align 4
  %36 = call ptr (ptr, ptr, i32, i32, i32, ptr, ptr, ...) @proto_tree_add_subtree_format(ptr noundef %32, ptr noundef %33, i32 noundef %34, i32 noundef 4, i32 noundef %35, ptr noundef null, ptr noundef @.str.1894)
  call void @llvm.lifetime.end.p0(i64 8, ptr %11) #9
  call void @llvm.lifetime.end.p0(i64 8, ptr %10) #9
  br label %47

37:                                               ; preds = %4
  %38 = load ptr, ptr %6, align 8
  %39 = load ptr, ptr %5, align 8
  %40 = load i32, ptr %7, align 4
  %41 = load i32, ptr @hf_mq_close_options, align 4
  %42 = load i32, ptr @ett_mq_close_option, align 4
  %43 = load ptr, ptr %8, align 8
  %44 = getelementptr inbounds nuw %struct._mq_parm_t, ptr %43, i32 0, i32 3
  %45 = load i32, ptr %44, align 4
  %46 = call ptr @proto_tree_add_bitmask(ptr noundef %38, ptr noundef %39, i32 noundef %40, i32 noundef %41, i32 noundef %42, ptr noundef @pf_flds_clsopt, i32 noundef %45)
  br label %47

47:                                               ; preds = %37, %20
  call void @llvm.lifetime.end.p0(i64 4, ptr %9) #9
  ret i32 4
}