; Function Attrs: null_pointer_is_valid sspstrong uwtable
define internal fastcc void @dissect_mq_MQCO(ptr noundef %0, ptr noundef %1, i32 noundef %2, ptr noundef readonly captures(none) %3) unnamed_addr #0 {
  %5 = getelementptr inbounds nuw i8, ptr %3, i64 12
  %6 = load i32, ptr %5, align 4
  %7 = tail call i32 @tvb_get_uint32(ptr noundef %0, i32 noundef %2, i32 noundef %6)
  %8 = icmp eq i32 %7, 0
  %9 = load i32, ptr @hf_mq_close_options, align 4
  br i1 %8, label %10, label %17

10:                                               ; preds = %4
  %11 = load i32, ptr %5, align 4
  %12 = tail call ptr @proto_tree_add_item(ptr noundef %1, i32 noundef %9, ptr noundef %0, i32 noundef %2, i32 noundef 4, i32 noundef %11)
  %13 = load i32, ptr @ett_mq_close_option, align 4
  %14 = tail call ptr @proto_item_add_subtree(ptr noundef %12, i32 noundef %13)
  %15 = load i32, ptr @ett_mq_close_option, align 4
  %16 = tail call ptr (ptr, ptr, i32, i32, i32, ptr, ptr, ...) @proto_tree_add_subtree_format(ptr noundef %14, ptr noundef %0, i32 noundef %2, i32 noundef 4, i32 noundef %15, ptr noundef null, ptr noundef nonnull @.str.1894)
  br label %21

17:                                               ; preds = %4
  %18 = load i32, ptr @ett_mq_close_option, align 4
  %19 = load i32, ptr %5, align 4
  %20 = tail call ptr @proto_tree_add_bitmask(ptr noundef %1, ptr noundef %0, i32 noundef %2, i32 noundef %9, i32 noundef %18, ptr noundef nonnull @pf_flds_clsopt, i32 noundef %19)
  br label %21

21:                                               ; preds = %17, %10
  ret void
}